; Function Attrs: mustprogress nounwind uwtable
define dso_local void @_ZN4node4quic11TokenSecret5ResetEv(ptr noundef nonnull align 8 dereferenceable(24) %this) local_unnamed_addr #3 align 2 {
entry:
  %buf_ = getelementptr inbounds i8, ptr %this, i64 8
  %call = tail call i8 @_ZN4node6crypto6CSPRNGEPvm(ptr noundef nonnull %buf_, i64 noundef 16) #17
  %0 = and i8 %call, 1
  %tobool.i.not = icmp eq i8 %0, 0
  br i1 %tobool.i.not, label %do.body5, label %do.end6

do.body5:                                         ; preds = %entry
  tail call void @_ZN4node6AssertERKNS_13AssertionInfoE(ptr noundef nonnull align 8 dereferenceable(24) @_ZZN4node4quic11TokenSecret5ResetEvE4args) #17
  tail call void @abort() #18
  unreachable

do.end6:                                          ; preds = %entry
  ret void
}